target datalayout = "e-m:e-p270:32:32-p271:32:32-p272:64:64-i64:64-i128:128-f80:128-n8:16:32:64-S128"
target triple = "x86_64-pc-linux-gnu"

%struct.asn1_string_table_st = type { i32, i64, i64, i64, i64 }

@stable = internal global ptr null, align 8

; Function Attrs: nounwind uwtable
define internal ptr @OBJ_bsearch_table(ptr noundef %0, ptr noundef %1, i32 noundef %2) #0 {
  %4 = alloca ptr, align 8
  %5 = alloca ptr, align 8
  %6 = alloca i32, align 4
  store ptr %0, ptr %4, align 8, !tbaa !17
  store ptr %1, ptr %5, align 8, !tbaa !17
  store i32 %2, ptr %6, align 4, !tbaa !13
  %7 = load ptr, ptr %4, align 8, !tbaa !17
  %8 = load ptr, ptr %5, align 8, !tbaa !17
  %9 = load i32, ptr %6, align 4, !tbaa !13
  %10 = call ptr @OBJ_bsearch_(ptr noundef %7, ptr noundef %8, i32 noundef %9, i32 noundef 40, ptr noundef @table_cmp_BSEARCH_CMP_FN)
  ret ptr %10
}

; Function Attrs: inlinehint nounwind uwtable
define internal ptr @ossl_check_const_ASN1_STRING_TABLE_sk_type(ptr noundef %0) #5 {
  %2 = alloca ptr, align 8
  store ptr %0, ptr %2, align 8, !tbaa !25
  %3 = load ptr, ptr %2, align 8, !tbaa !25
  ret ptr %3
}

; Function Attrs: inlinehint nounwind uwtable
define internal ptr @ossl_check_ASN1_STRING_TABLE_type(ptr noundef %0) #5 {
  %2 = alloca ptr, align 8
  store ptr %0, ptr %2, align 8, !tbaa !17
  %3 = load ptr, ptr %2, align 8, !tbaa !17
  ret ptr %3
}

; Function Attrs: inlinehint nounwind uwtable
define internal ptr @ossl_check_ASN1_STRING_TABLE_sk_type(ptr noundef %0) #5 {
  %2 = alloca ptr, align 8
  store ptr %0, ptr %2, align 8, !tbaa !25
  %3 = load ptr, ptr %2, align 8, !tbaa !25
  ret ptr %3
}

; Function Attrs: nounwind uwtable
define ptr @ASN1_STRING_TABLE_get(i32 noundef %0) #0 {
  %2 = alloca ptr, align 8
  %3 = alloca i32, align 4
  %4 = alloca i32, align 4
  %5 = alloca %struct.asn1_string_table_st, align 8
  %6 = alloca i32, align 4
  store i32 %0, ptr %3, align 4, !tbaa !13
  call void @llvm.lifetime.start.p0(i64 4, ptr %4) #6
  call void @llvm.lifetime.start.p0(i64 40, ptr %5) #6
  %7 = call i32 @OPENSSL_init_crypto(i64 noundef 64, ptr noundef null)
  %8 = load i32, ptr %3, align 4, !tbaa !13
  %9 = getelementptr inbounds nuw %struct.asn1_string_table_st, ptr %5, i32 0, i32 0
  store i32 %8, ptr %9, align 8, !tbaa !24
  %10 = load ptr, ptr @stable, align 8, !tbaa !25
  %11 = icmp ne ptr %10, null
  br i1 %11, label %12, label %27

12:                                               ; preds = %1
  %13 = load ptr, ptr @stable, align 8, !tbaa !25
  %14 = call ptr @ossl_check_ASN1_STRING_TABLE_sk_type(ptr noundef %13)
  call void @OPENSSL_sk_sort(ptr noundef %14)
  %15 = load ptr, ptr @stable, align 8, !tbaa !25
  %16 = call ptr @ossl_check_ASN1_STRING_TABLE_sk_type(ptr noundef %15)
  %17 = call ptr @ossl_check_ASN1_STRING_TABLE_type(ptr noundef %5)
  %18 = call i32 @OPENSSL_sk_find(ptr noundef %16, ptr noundef %17)
  store i32 %18, ptr %4, align 4, !tbaa !13
  %19 = load i32, ptr %4, align 4, !tbaa !13
  %20 = icmp sge i32 %19, 0
  br i1 %20, label %21, label %26

21:                                               ; preds = %12
  %22 = load ptr, ptr @stable, align 8, !tbaa !25
  %23 = call ptr @ossl_check_const_ASN1_STRING_TABLE_sk_type(ptr noundef %22)
  %24 = load i32, ptr %4, align 4, !tbaa !13
  %25 = call ptr @OPENSSL_sk_value(ptr noundef %23, i32 noundef %24)
  store ptr %25, ptr %2, align 8
  store i32 1, ptr %6, align 4
  br label %29

26:                                               ; preds = %12
  br label %27

27:                                               ; preds = %26, %1
  %28 = call ptr @OBJ_bsearch_table(ptr noundef %5, ptr noundef @tbl_standard, i32 noundef 28)
  store ptr %28, ptr %2, align 8
  store i32 1, ptr %6, align 4
  br label %29

29:                                               ; preds = %27, %21
  call void @llvm.lifetime.end.p0(i64 40, ptr %5) #6
  call void @llvm.lifetime.end.p0(i64 4, ptr %4) #6
  %30 = load ptr, ptr %2, align 8
  ret ptr %30
}