; Function Attrs: nounwind uwtable
define ptr @ASN1_STRING_TABLE_get(i32 noundef %0) local_unnamed_addr #6 {
  %2 = alloca %struct.asn1_string_table_st, align 8
  call void @llvm.lifetime.start.p0(i64 40, ptr nonnull %2) #11
  %3 = tail call i32 @OPENSSL_init_crypto(i64 noundef 64, ptr noundef null) #11
  store i32 %0, ptr %2, align 8, !tbaa !13
  %4 = load ptr, ptr @stable, align 8, !tbaa !16
  %.not = icmp eq ptr %4, null
  br i1 %.not, label %12, label %5

5:                                                ; preds = %1
  tail call void @OPENSSL_sk_sort(ptr noundef nonnull %4) #11
  %6 = load ptr, ptr @stable, align 8, !tbaa !16
  %7 = call i32 @OPENSSL_sk_find(ptr noundef %6, ptr noundef nonnull %2) #11
  %8 = icmp sgt i32 %7, -1
  br i1 %8, label %9, label %12

9:                                                ; preds = %5
  %10 = load ptr, ptr @stable, align 8, !tbaa !16
  %11 = call ptr @OPENSSL_sk_value(ptr noundef %10, i32 noundef %7) #11
  br label %14

12:                                               ; preds = %5, %1
  %13 = call ptr @OBJ_bsearch_(ptr noundef nonnull %2, ptr noundef nonnull @tbl_standard, i32 noundef 28, i32 noundef 40, ptr noundef nonnull @table_cmp_BSEARCH_CMP_FN) #11
  br label %14

14:                                               ; preds = %12, %9
  %.0 = phi ptr [ %11, %9 ], [ %13, %12 ]
  call void @llvm.lifetime.end.p0(i64 40, ptr nonnull %2) #11
  ret ptr %.0
}